; Function Attrs: mustprogress nounwind uwtable
define internal noundef ptr @_ZNSt23_Sp_counted_ptr_inplaceIN4node12_GLOBAL__N_110EmptyEntry11EmptyReaderESaIvELN9__gnu_cxx12_Lock_policyE2EE14_M_get_deleterERKSt9type_info(ptr noundef nonnull readnone align 8 dereferenceable(56) %this, ptr noundef nonnull align 8 dereferenceable(16) %__ti) unnamed_addr #3 align 2 {
entry:
  %_M_impl.i = getelementptr inbounds i8, ptr %this, i64 16
  %cmp = icmp eq ptr %__ti, @_ZZNSt19_Sp_make_shared_tag5_S_tiEvE5__tag
  br i1 %cmp, label %return, label %lor.lhs.false

lor.lhs.false:                                    ; preds = %entry
  %call3 = tail call noundef zeroext i1 @_ZNSt19_Sp_make_shared_tag5_S_eqERKSt9type_info(ptr noundef nonnull align 8 dereferenceable(16) %__ti) #20
  %spec.select = select i1 %call3, ptr %_M_impl.i, ptr null
  br label %return

return:                                           ; preds = %lor.lhs.false, %entry
  %retval.0 = phi ptr [ %_M_impl.i, %entry ], [ %spec.select, %lor.lhs.false ]
  ret ptr %retval.0
}